target datalayout = "e-m:e-p270:32:32-p271:32:32-p272:64:64-i64:64-i128:128-f80:128-n8:16:32:64-S128"
target triple = "x86_64-pc-linux-gnu"

%"struct.Catch::SourceLineInfo" = type { ptr, i64 }
%"class.Catch::StringRef" = type { ptr, i64 }
%"class.Catch::AssertionHandler" = type { %"struct.Catch::AssertionInfo", %"struct.Catch::AssertionReaction", i8, ptr }
%"struct.Catch::AssertionInfo" = type <{ %"class.Catch::StringRef", %"struct.Catch::SourceLineInfo", %"class.Catch::StringRef", i32, [4 x i8] }>
%"struct.Catch::AssertionReaction" = type { i8, i8 }
%"class.Catch::BinaryExpr" = type { %"struct.Catch::ITransientExpression.base", ptr, %"class.Catch::StringRef", ptr }
%"struct.Catch::ITransientExpression.base" = type <{ ptr, i8, i8 }>
%"class.Catch::ExprLhs" = type { ptr }
%"struct.Catch::Decomposer" = type { i8 }
%"struct.(anonymous namespace)::ConstructRoot.1" = type { i64, i64, i64, i64, i64 }
%"struct.Catch::ITransientExpression" = type <{ ptr, i8, i8, [6 x i8] }>

@.str = private unnamed_addr constant [122 x i8] c"generated/home/dtcxzyw/WorkSpace/Projects/compilers/llvm-opt-benchmark/bench/vcpkg/vcpkg-tool/src/vcpkg-test/expected.cpp\00", align 1
@.str.22 = private unnamed_addr constant [6 x i8] c"CHECK\00", align 1
@.str.25 = private unnamed_addr constant [3 x i8] c"==\00", align 1
@_ZTVN5Catch20ITransientExpressionE = available_externally unnamed_addr constant { [5 x ptr] } { [5 x ptr] [ptr null, ptr @_ZTIN5Catch20ITransientExpressionE, ptr @__cxa_pure_virtual, ptr @_ZN5Catch20ITransientExpressionD1Ev, ptr @_ZN5Catch20ITransientExpressionD0Ev] }, align 8
@.str.30 = private unnamed_addr constant [11 x i8] c"alive == 0\00", align 1

; Function Attrs: mustprogress nounwind uwtable
define linkonce_odr dso_local void @_ZN5Catch20ITransientExpressionC2Ebb(ptr noundef nonnull align 8 dereferenceable(10) %0, i1 noundef zeroext %1, i1 noundef zeroext %2) unnamed_addr #4 comdat align 2 {
  %4 = alloca ptr, align 8
  %5 = alloca i8, align 1
  %6 = alloca i8, align 1
  store ptr %0, ptr %4, align 8, !tbaa !82
  %7 = zext i1 %1 to i8
  store i8 %7, ptr %5, align 1, !tbaa !80
  %8 = zext i1 %2 to i8
  store i8 %8, ptr %6, align 1, !tbaa !80
  %9 = load ptr, ptr %4, align 8
  store ptr getelementptr inbounds inrange(-16, 24) ({ [5 x ptr] }, ptr @_ZTVN5Catch20ITransientExpressionE, i32 0, i32 0, i32 2), ptr %9, align 8, !tbaa !71
  %10 = getelementptr inbounds nuw %"struct.Catch::ITransientExpression", ptr %9, i32 0, i32 1
  %11 = load i8, ptr %5, align 1, !tbaa !80, !range !30, !noundef !31
  %12 = trunc i8 %11 to i1
  %13 = zext i1 %12 to i8
  store i8 %13, ptr %10, align 8, !tbaa !84
  %14 = getelementptr inbounds nuw %"struct.Catch::ITransientExpression", ptr %9, i32 0, i32 2
  %15 = load i8, ptr %6, align 1, !tbaa !80, !range !30, !noundef !31
  %16 = trunc i8 %15 to i1
  %17 = zext i1 %16 to i8
  store i8 %17, ptr %14, align 1, !tbaa !86
  ret void
}

; Function Attrs: mustprogress uwtable
define linkonce_odr dso_local void @_ZN5Catch10BinaryExprIRKmRKiEC2EbS2_NS_9StringRefES4_(ptr noundef nonnull align 8 dereferenceable(48) %0, i1 noundef zeroext %1, ptr noundef nonnull align 8 dereferenceable(8) %2, ptr %3, i64 %4, ptr noundef nonnull align 4 dereferenceable(4) %5) unnamed_addr #2 comdat align 2 {
  %7 = alloca %"class.Catch::StringRef", align 8
  %8 = alloca ptr, align 8
  %9 = alloca i8, align 1
  %10 = alloca ptr, align 8
  %11 = alloca ptr, align 8
  %12 = getelementptr inbounds nuw { ptr, i64 }, ptr %7, i32 0, i32 0
  store ptr %3, ptr %12, align 8
  %13 = getelementptr inbounds nuw { ptr, i64 }, ptr %7, i32 0, i32 1
  store i64 %4, ptr %13, align 8
  store ptr %0, ptr %8, align 8, !tbaa !78
  %14 = zext i1 %1 to i8
  store i8 %14, ptr %9, align 1, !tbaa !80
  store ptr %2, ptr %10, align 8, !tbaa !54
  store ptr %5, ptr %11, align 8, !tbaa !58
  %15 = load ptr, ptr %8, align 8
  %16 = load i8, ptr %9, align 1, !tbaa !80, !range !30, !noundef !31
  %17 = trunc i8 %16 to i1
  call void @_ZN5Catch20ITransientExpressionC2Ebb(ptr noundef nonnull align 8 dereferenceable(10) %15, i1 noundef zeroext true, i1 noundef zeroext %17)
  store ptr getelementptr inbounds inrange(-16, 24) ({ [5 x ptr] }, ptr @_ZTVN5Catch10BinaryExprIRKmRKiEE, i32 0, i32 0, i32 2), ptr %15, align 8, !tbaa !71
  %18 = getelementptr inbounds nuw %"class.Catch::BinaryExpr", ptr %15, i32 0, i32 1
  %19 = load ptr, ptr %10, align 8, !tbaa !54
  store ptr %19, ptr %18, align 8, !tbaa !54
  %20 = getelementptr inbounds nuw %"class.Catch::BinaryExpr", ptr %15, i32 0, i32 2
  call void @llvm.memcpy.p0.p0.i64(ptr align 8 %20, ptr align 8 %7, i64 16, i1 false), !tbaa.struct !81
  %21 = getelementptr inbounds nuw %"class.Catch::BinaryExpr", ptr %15, i32 0, i32 3
  %22 = load ptr, ptr %11, align 8, !tbaa !58
  store ptr %22, ptr %21, align 8, !tbaa !58
  ret void
}

; Function Attrs: mustprogress nounwind uwtable
define linkonce_odr dso_local noundef zeroext i1 @_ZN5Catch12compareEqualImiEEbRKT_RKT0_(ptr noundef nonnull align 8 dereferenceable(8) %0, ptr noundef nonnull align 4 dereferenceable(4) %1) #4 comdat {
  %3 = alloca ptr, align 8
  %4 = alloca ptr, align 8
  store ptr %0, ptr %3, align 8, !tbaa !54
  store ptr %1, ptr %4, align 8, !tbaa !58
  %5 = load ptr, ptr %3, align 8, !tbaa !54
  %6 = load i64, ptr %5, align 8, !tbaa !13
  %7 = load ptr, ptr %4, align 8, !tbaa !58
  %8 = load i32, ptr %7, align 4, !tbaa !4
  %9 = sext i32 %8 to i64
  %10 = icmp eq i64 %6, %9
  ret i1 %10
}

; Function Attrs: mustprogress nounwind uwtable
define linkonce_odr dso_local void @_ZN5Catch7ExprLhsIRKmEC2ES2_(ptr noundef nonnull align 8 dereferenceable(8) %0, ptr noundef nonnull align 8 dereferenceable(8) %1) unnamed_addr #4 comdat align 2 {
  %3 = alloca ptr, align 8
  %4 = alloca ptr, align 8
  store ptr %0, ptr %3, align 8, !tbaa !56
  store ptr %1, ptr %4, align 8, !tbaa !54
  %5 = load ptr, ptr %3, align 8
  %6 = getelementptr inbounds nuw %"class.Catch::ExprLhs", ptr %5, i32 0, i32 0
  %7 = load ptr, ptr %4, align 8, !tbaa !54
  store ptr %7, ptr %6, align 8, !tbaa !54
  ret void
}

; Function Attrs: mustprogress nounwind uwtable
define linkonce_odr dso_local void @_ZN5Catch9StringRefC2EPKcm(ptr noundef nonnull align 8 dereferenceable(16) %0, ptr noundef %1, i64 noundef %2) unnamed_addr #4 comdat align 2 {
  %4 = alloca ptr, align 8
  %5 = alloca ptr, align 8
  %6 = alloca i64, align 8
  store ptr %0, ptr %4, align 8, !tbaa !18
  store ptr %1, ptr %5, align 8, !tbaa !11
  store i64 %2, ptr %6, align 8, !tbaa !13
  %7 = load ptr, ptr %4, align 8
  %8 = getelementptr inbounds nuw %"class.Catch::StringRef", ptr %7, i32 0, i32 0
  %9 = load ptr, ptr %5, align 8, !tbaa !11
  store ptr %9, ptr %8, align 8, !tbaa !20
  %10 = getelementptr inbounds nuw %"class.Catch::StringRef", ptr %7, i32 0, i32 1
  %11 = load i64, ptr %6, align 8, !tbaa !13
  store i64 %11, ptr %10, align 8, !tbaa !22
  ret void
}

; Function Attrs: mustprogress uwtable
define linkonce_odr dso_local void @_ZN5Catch7ExprLhsIRKmEeqIiEEKNS_10BinaryExprIS2_RKT_EES8_(ptr dead_on_unwind noalias writable sret(%"class.Catch::BinaryExpr") align 8 %0, ptr noundef nonnull align 8 dereferenceable(8) %1, ptr noundef nonnull align 4 dereferenceable(4) %2) #2 comdat align 2 {
  %4 = alloca ptr, align 8
  %5 = alloca ptr, align 8
  %6 = alloca ptr, align 8
  %7 = alloca %"class.Catch::StringRef", align 8
  store ptr %0, ptr %4, align 8
  store ptr %1, ptr %5, align 8, !tbaa !56
  store ptr %2, ptr %6, align 8, !tbaa !58
  %8 = load ptr, ptr %5, align 8
  %9 = getelementptr inbounds nuw %"class.Catch::ExprLhs", ptr %8, i32 0, i32 0
  %10 = load ptr, ptr %9, align 8, !tbaa !60
  %11 = load ptr, ptr %6, align 8, !tbaa !58
  %12 = call noundef zeroext i1 @_ZN5Catch12compareEqualImiEEbRKT_RKT0_(ptr noundef nonnull align 8 dereferenceable(8) %10, ptr noundef nonnull align 4 dereferenceable(4) %11)
  %13 = getelementptr inbounds nuw %"class.Catch::ExprLhs", ptr %8, i32 0, i32 0
  %14 = load ptr, ptr %13, align 8, !tbaa !60
  call void @_ZN5Catch9StringRefC1EPKc(ptr noundef nonnull align 8 dereferenceable(16) %7, ptr noundef @.str.25) #6
  %15 = load ptr, ptr %6, align 8, !tbaa !58
  %16 = getelementptr inbounds nuw { ptr, i64 }, ptr %7, i32 0, i32 0
  %17 = load ptr, ptr %16, align 8
  %18 = getelementptr inbounds nuw { ptr, i64 }, ptr %7, i32 0, i32 1
  %19 = load i64, ptr %18, align 8
  call void @_ZN5Catch10BinaryExprIRKmRKiEC2EbS2_NS_9StringRefES4_(ptr noundef nonnull align 8 dereferenceable(48) %0, i1 noundef zeroext %12, ptr noundef nonnull align 8 dereferenceable(8) %14, ptr %17, i64 %19, ptr noundef nonnull align 4 dereferenceable(4) %15)
  ret void
}

; Function Attrs: mustprogress uwtable
define linkonce_odr dso_local ptr @_ZN5Catch10DecomposerleImEENS_7ExprLhsIRKT_EES5_(ptr noundef nonnull align 1 dereferenceable(1) %0, ptr noundef nonnull align 8 dereferenceable(8) %1) #2 comdat align 2 {
  %3 = alloca %"class.Catch::ExprLhs", align 8
  %4 = alloca ptr, align 8
  %5 = alloca ptr, align 8
  store ptr %0, ptr %4, align 8, !tbaa !52
  store ptr %1, ptr %5, align 8, !tbaa !54
  %6 = load ptr, ptr %5, align 8, !tbaa !54
  call void @_ZN5Catch7ExprLhsIRKmEC2ES2_(ptr noundef nonnull align 8 dereferenceable(8) %3, ptr noundef nonnull align 8 dereferenceable(8) %6)
  %7 = getelementptr inbounds nuw %"class.Catch::ExprLhs", ptr %3, i32 0, i32 0
  %8 = load ptr, ptr %7, align 8
  ret ptr %8
}

; Function Attrs: mustprogress nounwind uwtable
define linkonce_odr dso_local void @_ZN5Catch14SourceLineInfoC2EPKcm(ptr noundef nonnull align 8 dereferenceable(16) %0, ptr noundef %1, i64 noundef %2) unnamed_addr #4 comdat align 2 {
  %4 = alloca ptr, align 8
  %5 = alloca ptr, align 8
  %6 = alloca i64, align 8
  store ptr %0, ptr %4, align 8, !tbaa !8
  store ptr %1, ptr %5, align 8, !tbaa !11
  store i64 %2, ptr %6, align 8, !tbaa !13
  %7 = load ptr, ptr %4, align 8
  %8 = getelementptr inbounds nuw %"struct.Catch::SourceLineInfo", ptr %7, i32 0, i32 0
  %9 = load ptr, ptr %5, align 8, !tbaa !11
  store ptr %9, ptr %8, align 8, !tbaa !15
  %10 = getelementptr inbounds nuw %"struct.Catch::SourceLineInfo", ptr %7, i32 0, i32 1
  %11 = load i64, ptr %6, align 8, !tbaa !13
  store i64 %11, ptr %10, align 8, !tbaa !17
  ret void
}

; Function Attrs: mustprogress nounwind uwtable
define linkonce_odr dso_local { ptr, i64 } @_Zli9_catch_srPKcm(ptr noundef %0, i64 noundef %1) #4 comdat {
  %3 = alloca %"class.Catch::StringRef", align 8
  %4 = alloca ptr, align 8
  %5 = alloca i64, align 8
  store ptr %0, ptr %4, align 8, !tbaa !11
  store i64 %1, ptr %5, align 8, !tbaa !13
  %6 = load ptr, ptr %4, align 8, !tbaa !11
  %7 = load i64, ptr %5, align 8, !tbaa !13
  call void @_ZN5Catch9StringRefC2EPKcm(ptr noundef nonnull align 8 dereferenceable(16) %3, ptr noundef %6, i64 noundef %7) #6
  %8 = load { ptr, i64 }, ptr %3, align 8
  ret { ptr, i64 } %8
}

; Function Attrs: mustprogress uwtable
define internal void @_ZN12_GLOBAL__N_113ConstructRootILi1EE13check_nothingEv(ptr noundef nonnull align 8 dereferenceable(40) %0) #2 align 2 personality ptr @__gxx_personality_v0 {
  %2 = alloca ptr, align 8
  %3 = alloca %"class.Catch::AssertionHandler", align 8
  %4 = alloca %"class.Catch::StringRef", align 8
  %5 = alloca %"struct.Catch::SourceLineInfo", align 8
  %6 = alloca %"class.Catch::StringRef", align 8
  %7 = alloca %"class.Catch::BinaryExpr", align 8
  %8 = alloca %"class.Catch::ExprLhs", align 8
  %9 = alloca %"struct.Catch::Decomposer", align 1
  %10 = alloca ptr, align 8
  %11 = alloca i32, align 4
  %12 = alloca i32, align 4
  store ptr %0, ptr %2, align 8, !tbaa !36
  %13 = load ptr, ptr %2, align 8
  br label %14

14:                                               ; preds = %1
  call void @llvm.lifetime.start.p0(i64 72, ptr %3) #6
  call void @llvm.lifetime.start.p0(i64 16, ptr %4) #6
  %15 = call { ptr, i64 } @_Zli9_catch_srPKcm(ptr noundef @.str.22, i64 noundef 5) #6
  %16 = getelementptr inbounds nuw { ptr, i64 }, ptr %4, i32 0, i32 0
  %17 = extractvalue { ptr, i64 } %15, 0
  store ptr %17, ptr %16, align 8
  %18 = getelementptr inbounds nuw { ptr, i64 }, ptr %4, i32 0, i32 1
  %19 = extractvalue { ptr, i64 } %15, 1
  store i64 %19, ptr %18, align 8
  call void @llvm.lifetime.start.p0(i64 16, ptr %5) #6
  call void @_ZN5Catch14SourceLineInfoC2EPKcm(ptr noundef nonnull align 8 dereferenceable(16) %5, ptr noundef @.str, i64 noundef 30) #6
  call void @_ZN5Catch9StringRefC1EPKc(ptr noundef nonnull align 8 dereferenceable(16) %6, ptr noundef @.str.30) #6
  %20 = getelementptr inbounds nuw { ptr, i64 }, ptr %6, i32 0, i32 0
  %21 = load ptr, ptr %20, align 8
  %22 = getelementptr inbounds nuw { ptr, i64 }, ptr %6, i32 0, i32 1
  %23 = load i64, ptr %22, align 8
  call void @_ZN5Catch16AssertionHandlerC1ERKNS_9StringRefERKNS_14SourceLineInfoES1_NS_17ResultDisposition5FlagsE(ptr noundef nonnull align 8 dereferenceable(72) %3, ptr noundef nonnull align 8 dereferenceable(16) %4, ptr noundef nonnull align 8 dereferenceable(16) %5, ptr %21, i64 %23, i32 noundef 2)
  call void @llvm.lifetime.end.p0(i64 16, ptr %5) #6
  call void @llvm.lifetime.end.p0(i64 16, ptr %4) #6
  call void @llvm.lifetime.start.p0(i64 48, ptr %7) #6
  call void @llvm.lifetime.start.p0(i64 8, ptr %8) #6
  call void @llvm.lifetime.start.p0(i64 1, ptr %9) #6
  %24 = getelementptr inbounds nuw %"struct.(anonymous namespace)::ConstructRoot.1", ptr %13, i32 0, i32 0
  %25 = invoke ptr @_ZN5Catch10DecomposerleImEENS_7ExprLhsIRKT_EES5_(ptr noundef nonnull align 1 dereferenceable(1) %9, ptr noundef nonnull align 8 dereferenceable(8) %24)
          to label %26 unwind label %30

26:                                               ; preds = %14
  %27 = getelementptr inbounds nuw %"class.Catch::ExprLhs", ptr %8, i32 0, i32 0
  store ptr %25, ptr %27, align 8
  call void @llvm.lifetime.start.p0(i64 4, ptr %12) #6
  store i32 0, ptr %12, align 4, !tbaa !4
  invoke void @_ZN5Catch7ExprLhsIRKmEeqIiEEKNS_10BinaryExprIS2_RKT_EES8_(ptr dead_on_unwind writable sret(%"class.Catch::BinaryExpr") align 8 %7, ptr noundef nonnull align 8 dereferenceable(8) %8, ptr noundef nonnull align 4 dereferenceable(4) %12)
          to label %28 unwind label %34

28:                                               ; preds = %26
  invoke void @_ZN5Catch16AssertionHandler10handleExprERKNS_20ITransientExpressionE(ptr noundef nonnull align 8 dereferenceable(72) %3, ptr noundef nonnull align 8 dereferenceable(10) %7)
          to label %29 unwind label %38

29:                                               ; preds = %28
  call void @_ZN5Catch20ITransientExpressionD2Ev(ptr noundef nonnull align 8 dereferenceable(48) %7) #6
  call void @llvm.lifetime.end.p0(i64 4, ptr %12) #6
  call void @llvm.lifetime.end.p0(i64 1, ptr %9) #6
  call void @llvm.lifetime.end.p0(i64 8, ptr %8) #6
  call void @llvm.lifetime.end.p0(i64 48, ptr %7) #6
  br label %49

30:                                               ; preds = %14
  %31 = landingpad { ptr, i32 }
          catch ptr null
  %32 = extractvalue { ptr, i32 } %31, 0
  store ptr %32, ptr %10, align 8
  %33 = extractvalue { ptr, i32 } %31, 1
  store i32 %33, ptr %11, align 4
  br label %43

34:                                               ; preds = %26
  %35 = landingpad { ptr, i32 }
          catch ptr null
  %36 = extractvalue { ptr, i32 } %35, 0
  store ptr %36, ptr %10, align 8
  %37 = extractvalue { ptr, i32 } %35, 1
  store i32 %37, ptr %11, align 4
  br label %42

38:                                               ; preds = %28
  %39 = landingpad { ptr, i32 }
          catch ptr null
  %40 = extractvalue { ptr, i32 } %39, 0
  store ptr %40, ptr %10, align 8
  %41 = extractvalue { ptr, i32 } %39, 1
  store i32 %41, ptr %11, align 4
  call void @_ZN5Catch20ITransientExpressionD2Ev(ptr noundef nonnull align 8 dereferenceable(48) %7) #6
  br label %42

42:                                               ; preds = %38, %34
  call void @llvm.lifetime.end.p0(i64 4, ptr %12) #6
  br label %43

43:                                               ; preds = %42, %30
  call void @llvm.lifetime.end.p0(i64 1, ptr %9) #6
  call void @llvm.lifetime.end.p0(i64 8, ptr %8) #6
  call void @llvm.lifetime.end.p0(i64 48, ptr %7) #6
  br label %44

44:                                               ; preds = %43
  %45 = load ptr, ptr %10, align 8
  %46 = call ptr @__cxa_begin_catch(ptr %45) #6
  invoke void @_ZN5Catch16AssertionHandler33handleUnexpectedInflightExceptionEv(ptr noundef nonnull align 8 dereferenceable(72) %3)
          to label %47 unwind label %52

47:                                               ; preds = %44
  invoke void @__cxa_end_catch()
          to label %48 unwind label %56

48:                                               ; preds = %47
  br label %49

49:                                               ; preds = %48, %29
  invoke void @_ZN5Catch16AssertionHandler8completeEv(ptr noundef nonnull align 8 dereferenceable(72) %3)
          to label %50 unwind label %56

50:                                               ; preds = %49
  call void @_ZN5Catch16AssertionHandlerD2Ev(ptr noundef nonnull align 8 dereferenceable(72) %3) #6
  call void @llvm.lifetime.end.p0(i64 72, ptr %3) #6
  br label %51

51:                                               ; preds = %50
  call void @_ZNK12_GLOBAL__N_113ConstructRootILi1EE12check_no_opsEv(ptr noundef nonnull align 8 dereferenceable(40) %13)
  ret void

52:                                               ; preds = %44
  %53 = landingpad { ptr, i32 }
          cleanup
  %54 = extractvalue { ptr, i32 } %53, 0
  store ptr %54, ptr %10, align 8
  %55 = extractvalue { ptr, i32 } %53, 1
  store i32 %55, ptr %11, align 4
  invoke void @__cxa_end_catch()
          to label %60 unwind label %67

56:                                               ; preds = %49, %47
  %57 = landingpad { ptr, i32 }
          cleanup
  %58 = extractvalue { ptr, i32 } %57, 0
  store ptr %58, ptr %10, align 8
  %59 = extractvalue { ptr, i32 } %57, 1
  store i32 %59, ptr %11, align 4
  br label %61

60:                                               ; preds = %52
  br label %61

61:                                               ; preds = %60, %56
  call void @_ZN5Catch16AssertionHandlerD2Ev(ptr noundef nonnull align 8 dereferenceable(72) %3) #6
  call void @llvm.lifetime.end.p0(i64 72, ptr %3) #6
  br label %62

62:                                               ; preds = %61
  %63 = load ptr, ptr %10, align 8
  %64 = load i32, ptr %11, align 4
  %65 = insertvalue { ptr, i32 } poison, ptr %63, 0
  %66 = insertvalue { ptr, i32 } %65, i32 %64, 1
  resume { ptr, i32 } %66

67:                                               ; preds = %52
  %68 = landingpad { ptr, i32 }
          catch ptr null
  %69 = extractvalue { ptr, i32 } %68, 0
  call void @__clang_call_terminate(ptr %69) #15
  unreachable
}