; Function Attrs: mustprogress uwtable
define internal fastcc void @_ZN12_GLOBAL__N_113ConstructRootILi1EE13check_nothingEv(ptr noundef nonnull align 8 dereferenceable(40) %0) unnamed_addr #1 align 2 personality ptr @__gxx_personality_v0 {
  %2 = alloca %"class.Catch::StringRef", align 8
  %3 = alloca %"class.Catch::AssertionHandler", align 8
  %4 = alloca %"class.Catch::StringRef", align 8
  %5 = alloca %"struct.Catch::SourceLineInfo", align 8
  %6 = alloca %"class.Catch::StringRef", align 8
  %7 = alloca %"class.Catch::BinaryExpr", align 8
  %8 = alloca i32, align 4
  call void @llvm.lifetime.start.p0(i64 72, ptr nonnull %3) #18
  call void @llvm.lifetime.start.p0(i64 16, ptr nonnull %4) #18
  store ptr @.str.22, ptr %4, align 8
  %9 = getelementptr inbounds nuw i8, ptr %4, i64 8
  store i64 5, ptr %9, align 8
  call void @llvm.lifetime.start.p0(i64 16, ptr nonnull %5) #18
  store ptr @.str, ptr %5, align 8, !tbaa !9
  %10 = getelementptr inbounds nuw i8, ptr %5, i64 8
  store i64 30, ptr %10, align 8, !tbaa !13
  call void @_ZN5Catch9StringRefC1EPKc(ptr noundef nonnull align 8 dereferenceable(16) %6, ptr noundef nonnull @.str.30) #18
  %11 = load ptr, ptr %6, align 8
  %12 = getelementptr inbounds nuw i8, ptr %6, i64 8
  %13 = load i64, ptr %12, align 8
  call void @_ZN5Catch16AssertionHandlerC1ERKNS_9StringRefERKNS_14SourceLineInfoES1_NS_17ResultDisposition5FlagsE(ptr noundef nonnull align 8 dereferenceable(72) %3, ptr noundef nonnull align 8 dereferenceable(16) %4, ptr noundef nonnull align 8 dereferenceable(16) %5, ptr %11, i64 %13, i32 noundef 2)
  call void @llvm.lifetime.end.p0(i64 16, ptr nonnull %5) #18
  call void @llvm.lifetime.end.p0(i64 16, ptr nonnull %4) #18
  call void @llvm.lifetime.start.p0(i64 48, ptr nonnull %7) #18
  call void @llvm.lifetime.start.p0(i64 4, ptr nonnull %8) #18
  store i32 0, ptr %8, align 4, !tbaa !14
  call void @llvm.experimental.noalias.scope.decl(metadata !409)
  call void @llvm.lifetime.start.p0(i64 16, ptr nonnull %2)
  %14 = load i64, ptr %0, align 8, !tbaa !28, !noalias !409
  %15 = icmp eq i64 %14, 0
  call void @_ZN5Catch9StringRefC1EPKc(ptr noundef nonnull align 8 dereferenceable(16) %2, ptr noundef nonnull @.str.25) #18, !noalias !409
  %16 = load ptr, ptr %2, align 8, !noalias !409
  %17 = getelementptr inbounds nuw i8, ptr %2, i64 8
  %18 = load i64, ptr %17, align 8, !noalias !409
  %19 = zext i1 %15 to i8
  %20 = getelementptr inbounds nuw i8, ptr %7, i64 8
  store i8 1, ptr %20, align 8, !tbaa !19, !alias.scope !409
  %21 = getelementptr inbounds nuw i8, ptr %7, i64 9
  store i8 %19, ptr %21, align 1, !tbaa !22, !alias.scope !409
  store ptr getelementptr inbounds nuw inrange(-16, 24) (i8, ptr @_ZTVN5Catch10BinaryExprIRKmRKiEE, i64 16), ptr %7, align 8, !tbaa !23, !alias.scope !409
  %22 = getelementptr inbounds nuw i8, ptr %7, i64 16
  store ptr %0, ptr %22, align 8, !tbaa !25, !alias.scope !409
  %23 = getelementptr inbounds nuw i8, ptr %7, i64 24
  store ptr %16, ptr %23, align 8, !tbaa !27, !alias.scope !409
  %.sroa.2.0..sroa_idx.i.i = getelementptr inbounds nuw i8, ptr %7, i64 32
  store i64 %18, ptr %.sroa.2.0..sroa_idx.i.i, align 8, !tbaa !28, !alias.scope !409
  %24 = getelementptr inbounds nuw i8, ptr %7, i64 40
  store ptr %8, ptr %24, align 8, !tbaa !29, !alias.scope !409
  call void @llvm.lifetime.end.p0(i64 16, ptr nonnull %2)
  invoke void @_ZN5Catch16AssertionHandler10handleExprERKNS_20ITransientExpressionE(ptr noundef nonnull align 8 dereferenceable(72) %3, ptr noundef nonnull align 8 dereferenceable(10) %7)
          to label %25 unwind label %26

25:                                               ; preds = %1
  call void @_ZN5Catch20ITransientExpressionD2Ev(ptr noundef nonnull align 8 dereferenceable(48) %7) #18
  call void @llvm.lifetime.end.p0(i64 4, ptr nonnull %8) #18
  call void @llvm.lifetime.end.p0(i64 48, ptr nonnull %7) #18
  br label %30

26:                                               ; preds = %1
  %27 = landingpad { ptr, i32 }
          catch ptr null
  call void @_ZN5Catch20ITransientExpressionD2Ev(ptr noundef nonnull align 8 dereferenceable(48) %7) #18
  call void @llvm.lifetime.end.p0(i64 4, ptr nonnull %8) #18
  %.03 = extractvalue { ptr, i32 } %27, 0
  call void @llvm.lifetime.end.p0(i64 48, ptr nonnull %7) #18
  %28 = call ptr @__cxa_begin_catch(ptr %.03) #18
  invoke void @_ZN5Catch16AssertionHandler33handleUnexpectedInflightExceptionEv(ptr noundef nonnull align 8 dereferenceable(72) %3)
          to label %29 unwind label %44

29:                                               ; preds = %26
  invoke void @__cxa_end_catch()
          to label %30 unwind label %46

30:                                               ; preds = %29, %25
  invoke void @_ZN5Catch16AssertionHandler8completeEv(ptr noundef nonnull align 8 dereferenceable(72) %3)
          to label %31 unwind label %46

31:                                               ; preds = %30
  %32 = getelementptr inbounds nuw i8, ptr %3, i64 58
  %33 = load i8, ptr %32, align 2, !tbaa !31, !range !38, !noundef !39
  %34 = trunc nuw i8 %33 to i1
  br i1 %34, label %_ZN5Catch16AssertionHandlerD2Ev.exit, label %35

35:                                               ; preds = %31
  %36 = getelementptr inbounds nuw i8, ptr %3, i64 64
  %37 = load ptr, ptr %36, align 8, !tbaa !40
  %38 = load ptr, ptr %37, align 8, !tbaa !23
  %39 = getelementptr inbounds nuw i8, ptr %38, i64 112
  %40 = load ptr, ptr %39, align 8
  invoke void %40(ptr noundef nonnull align 8 dereferenceable(8) %37, ptr noundef nonnull align 8 dereferenceable(72) %3)
          to label %_ZN5Catch16AssertionHandlerD2Ev.exit unwind label %41

41:                                               ; preds = %35
  %42 = landingpad { ptr, i32 }
          catch ptr null
  %43 = extractvalue { ptr, i32 } %42, 0
  call void @__clang_call_terminate(ptr %43) #19
  unreachable

_ZN5Catch16AssertionHandlerD2Ev.exit:             ; preds = %31, %35
  call void @llvm.lifetime.end.p0(i64 72, ptr nonnull %3) #18
  call fastcc void @_ZNK12_GLOBAL__N_113ConstructRootILi1EE12check_no_opsEv(ptr noundef nonnull align 8 dereferenceable(40) %0)
  ret void

44:                                               ; preds = %26
  %45 = landingpad { ptr, i32 }
          cleanup
  invoke void @__cxa_end_catch()
          to label %48 unwind label %49

46:                                               ; preds = %30, %29
  %47 = landingpad { ptr, i32 }
          cleanup
  br label %48

48:                                               ; preds = %44, %46
  %.pn4 = phi { ptr, i32 } [ %47, %46 ], [ %45, %44 ]
  call void @_ZN5Catch16AssertionHandlerD2Ev(ptr noundef nonnull align 8 dereferenceable(72) %3) #18
  call void @llvm.lifetime.end.p0(i64 72, ptr nonnull %3) #18
  resume { ptr, i32 } %.pn4

49:                                               ; preds = %44
  %50 = landingpad { ptr, i32 }
          catch ptr null
  %51 = extractvalue { ptr, i32 } %50, 0
  call void @__clang_call_terminate(ptr %51) #19
  unreachable
}